; Function Attrs: mustprogress nounwind uwtable
define dso_local noundef ptr @_ZN4llvm12DWARFContext23getCompileUnitForOffsetEm(ptr nocapture noundef nonnull readonly align 8 dereferenceable(105) %0, i64 noundef %1) local_unnamed_addr #0 align 2 {
  %3 = getelementptr inbounds nuw i8, ptr %0, i64 16
  %4 = load ptr, ptr %3, align 8
  %5 = load ptr, ptr %4, align 8
  %6 = getelementptr inbounds i8, ptr %5, i64 16
  %7 = load ptr, ptr %6, align 8
  %8 = tail call noundef nonnull align 8 dereferenceable(64) ptr %7(ptr noundef nonnull align 8 dereferenceable(16) %4) #24
  %9 = tail call noundef ptr @_ZNK4llvm15DWARFUnitVector16getUnitForOffsetEm(ptr noundef nonnull align 8 dereferenceable(64) %8, i64 noundef %1) #24
  %.not.i.i = icmp eq ptr %9, null
  br i1 %.not.i.i, label %_ZN4llvm16dyn_cast_or_nullINS_16DWARFCompileUnitENS_9DWARFUnitEEEDaPT0_.exit, label %10

10:                                               ; preds = %2
  %11 = getelementptr inbounds i8, ptr %9, i64 96
  %12 = load i8, ptr %11, align 8
  %13 = and i8 %12, -5
  %spec.select.i.i.i.i.i.i.i.i.not.i.i.i = icmp eq i8 %13, 2
  %spec.select.i.i.i = select i1 %spec.select.i.i.i.i.i.i.i.i.not.i.i.i, ptr null, ptr %9
  br label %_ZN4llvm16dyn_cast_or_nullINS_16DWARFCompileUnitENS_9DWARFUnitEEEDaPT0_.exit

_ZN4llvm16dyn_cast_or_nullINS_16DWARFCompileUnitENS_9DWARFUnitEEEDaPT0_.exit: ; preds = %2, %10
  %.0.i.i = phi ptr [ %spec.select.i.i.i, %10 ], [ null, %2 ]
  ret ptr %.0.i.i
}